; Function Attrs: nounwind uwtable
define void @dt_gui_store_last_preset(ptr noundef %0) local_unnamed_addr #0 {
  %2 = load ptr, ptr getelementptr inbounds nuw (i8, ptr @darktable, i64 104), align 8, !tbaa !15
  %3 = getelementptr inbounds nuw i8, ptr %2, i64 88
  %4 = load ptr, ptr %3, align 8, !tbaa !83
  tail call void @g_free(ptr noundef %4) #18
  %5 = tail call noalias ptr @g_strdup(ptr noundef %0) #18
  %6 = load ptr, ptr getelementptr inbounds nuw (i8, ptr @darktable, i64 104), align 8, !tbaa !15
  %7 = getelementptr inbounds nuw i8, ptr %6, i64 88
  store ptr %5, ptr %7, align 8, !tbaa !83
  ret void
}